target datalayout = "e-m:e-p270:32:32-p271:32:32-p272:64:64-i64:64-i128:128-f80:128-n8:16:32:64-S128"
target triple = "x86_64-pc-linux-gnu"

%struct.Vec_Int_t_ = type { i32, i32, ptr }
%struct.timespec = type { i64, i64 }

@.str.10 = private unnamed_addr constant [52 x i8] c"Detected %d FAs and %d HAs.  Collected %d adders.  \00", align 1
@.str.11 = private unnamed_addr constant [5 x i8] c"Time\00", align 1
@.str.12 = private unnamed_addr constant [26 x i8] c"Detected %d adder trees. \00", align 1
@.str.16 = private unnamed_addr constant [5 x i8] c"%s =\00", align 1
@.str.17 = private unnamed_addr constant [11 x i8] c"%9.2f sec\0A\00", align 1

; Function Attrs: nounwind uwtable
define internal void @Vec_IntFree(ptr noundef %0) #0 {
  %2 = alloca ptr, align 8
  store ptr %0, ptr %2, align 8
  %3 = load ptr, ptr %2, align 8
  %4 = getelementptr inbounds %struct.Vec_Int_t_, ptr %3, i32 0, i32 2
  %5 = load ptr, ptr %4, align 8
  %6 = icmp ne ptr %5, null
  br i1 %6, label %7, label %13

7:                                                ; preds = %1
  %8 = load ptr, ptr %2, align 8
  %9 = getelementptr inbounds %struct.Vec_Int_t_, ptr %8, i32 0, i32 2
  %10 = load ptr, ptr %9, align 8
  call void @free(ptr noundef %10) #10
  %11 = load ptr, ptr %2, align 8
  %12 = getelementptr inbounds %struct.Vec_Int_t_, ptr %11, i32 0, i32 2
  store ptr null, ptr %12, align 8
  br label %14

13:                                               ; preds = %1
  br label %14

14:                                               ; preds = %13, %7
  %15 = load ptr, ptr %2, align 8
  %16 = icmp ne ptr %15, null
  br i1 %16, label %17, label %19

17:                                               ; preds = %14
  %18 = load ptr, ptr %2, align 8
  call void @free(ptr noundef %18) #10
  store ptr null, ptr %2, align 8
  br label %20

19:                                               ; preds = %14
  br label %20

20:                                               ; preds = %19, %17
  ret void
}

; Function Attrs: nounwind uwtable
define internal void @Abc_PrintTime(i32 noundef %0, ptr noundef %1, i64 noundef %2) #0 {
  %4 = alloca i32, align 4
  %5 = alloca ptr, align 8
  %6 = alloca i64, align 8
  store i32 %0, ptr %4, align 4
  store ptr %1, ptr %5, align 8
  store i64 %2, ptr %6, align 8
  %7 = load ptr, ptr %5, align 8
  call void (i32, ptr, ...) @Abc_Print(i32 noundef 1, ptr noundef @.str.16, ptr noundef %7)
  %8 = load i64, ptr %6, align 8
  %9 = sitofp i64 %8 to double
  %10 = fmul double 1.000000e+00, %9
  %11 = fdiv double %10, 1.000000e+06
  call void (i32, ptr, ...) @Abc_Print(i32 noundef 1, ptr noundef @.str.17, double noundef %11)
  ret void
}

; Function Attrs: nounwind uwtable
define internal i32 @Vec_IntSize(ptr noundef %0) #0 {
  %2 = alloca ptr, align 8
  store ptr %0, ptr %2, align 8
  %3 = load ptr, ptr %2, align 8
  %4 = getelementptr inbounds %struct.Vec_Int_t_, ptr %3, i32 0, i32 1
  %5 = load i32, ptr %4, align 4
  ret i32 %5
}

; Function Attrs: nounwind uwtable
define internal i64 @Abc_Clock() #0 {
  %1 = alloca i64, align 8
  %2 = alloca %struct.timespec, align 8
  %3 = alloca i64, align 8
  %4 = call i32 @clock_gettime(i32 noundef 1, ptr noundef %2) #10
  %5 = icmp slt i32 %4, 0
  br i1 %5, label %6, label %7

6:                                                ; preds = %0
  store i64 -1, ptr %1, align 8
  br label %18

7:                                                ; preds = %0
  %8 = getelementptr inbounds %struct.timespec, ptr %2, i32 0, i32 0
  %9 = load i64, ptr %8, align 8
  %10 = mul nsw i64 %9, 1000000
  store i64 %10, ptr %3, align 8
  %11 = getelementptr inbounds %struct.timespec, ptr %2, i32 0, i32 1
  %12 = load i64, ptr %11, align 8
  %13 = mul nsw i64 %12, 1000000
  %14 = sdiv i64 %13, 1000000000
  %15 = load i64, ptr %3, align 8
  %16 = add nsw i64 %15, %14
  store i64 %16, ptr %3, align 8
  %17 = load i64, ptr %3, align 8
  store i64 %17, ptr %1, align 8
  br label %18

18:                                               ; preds = %7, %6
  %19 = load i64, ptr %1, align 8
  ret i64 %19
}

; Function Attrs: nounwind uwtable
define void @Pas_ManComputeCutsTest(ptr noundef %0) #0 {
  %2 = alloca ptr, align 8
  %3 = alloca i64, align 8
  %4 = alloca ptr, align 8
  %5 = alloca ptr, align 8
  %6 = alloca ptr, align 8
  %7 = alloca ptr, align 8
  %8 = alloca i32, align 4
  %9 = alloca i32, align 4
  store ptr %0, ptr %2, align 8
  %10 = call i64 @Abc_Clock()
  store i64 %10, ptr %3, align 8
  %11 = load ptr, ptr %2, align 8
  %12 = call ptr @Ree_ManComputeCuts(ptr noundef %11, ptr noundef null, i32 noundef 1)
  store ptr %12, ptr %4, align 8
  %13 = load ptr, ptr %2, align 8
  %14 = load ptr, ptr %4, align 8
  %15 = call ptr @Gia_PolynCoreOrder(ptr noundef %13, ptr noundef %14, ptr noundef null, ptr noundef %5, ptr noundef %6)
  store ptr %15, ptr %7, align 8
  %16 = load ptr, ptr %4, align 8
  %17 = call i32 @Ree_ManCountFadds(ptr noundef %16)
  store i32 %17, ptr %9, align 4
  %18 = load i32, ptr %9, align 4
  %19 = load ptr, ptr %4, align 8
  %20 = call i32 @Vec_IntSize(ptr noundef %19)
  %21 = sdiv i32 %20, 6
  %22 = load i32, ptr %9, align 4
  %23 = sub nsw i32 %21, %22
  %24 = load ptr, ptr %7, align 8
  %25 = call i32 @Vec_IntSize(ptr noundef %24)
  %26 = call i32 (ptr, ...) @printf(ptr noundef @.str.10, i32 noundef %18, i32 noundef %23, i32 noundef %25)
  %27 = call i64 @Abc_Clock()
  %28 = load i64, ptr %3, align 8
  %29 = sub nsw i64 %27, %28
  call void @Abc_PrintTime(i32 noundef 1, ptr noundef @.str.11, i64 noundef %29)
  %30 = call i64 @Abc_Clock()
  store i64 %30, ptr %3, align 8
  %31 = load ptr, ptr %2, align 8
  %32 = load ptr, ptr %4, align 8
  %33 = load ptr, ptr %7, align 8
  %34 = load ptr, ptr %5, align 8
  %35 = load ptr, ptr %6, align 8
  %36 = call i32 @Pas_ManComputeCuts(ptr noundef %31, ptr noundef %32, ptr noundef %33, ptr noundef %34, ptr noundef %35)
  store i32 %36, ptr %8, align 4
  %37 = load ptr, ptr %4, align 8
  call void @Vec_IntFree(ptr noundef %37)
  %38 = load ptr, ptr %7, align 8
  call void @Vec_IntFree(ptr noundef %38)
  %39 = load ptr, ptr %5, align 8
  call void @Vec_IntFree(ptr noundef %39)
  %40 = load ptr, ptr %6, align 8
  call void @Vec_IntFree(ptr noundef %40)
  %41 = load i32, ptr %8, align 4
  %42 = call i32 (ptr, ...) @printf(ptr noundef @.str.12, i32 noundef %41)
  %43 = call i64 @Abc_Clock()
  %44 = load i64, ptr %3, align 8
  %45 = sub nsw i64 %43, %44
  call void @Abc_PrintTime(i32 noundef 1, ptr noundef @.str.11, i64 noundef %45)
  ret void
}