; Function Attrs: nounwind uwtable
define void @Pas_ManComputeCutsTest(ptr noundef %0) local_unnamed_addr #1 {
  %2 = alloca %struct.timespec, align 8
  %3 = alloca %struct.timespec, align 8
  %4 = alloca %struct.timespec, align 8
  %5 = alloca %struct.timespec, align 8
  %6 = alloca ptr, align 8
  %7 = alloca ptr, align 8
  call void @llvm.lifetime.start.p0(i64 16, ptr nonnull %5)
  %8 = call i32 @clock_gettime(i32 noundef 1, ptr noundef nonnull %5) #13
  %9 = icmp slt i32 %8, 0
  br i1 %9, label %Abc_Clock.exit, label %10

10:                                               ; preds = %1
  %11 = load i64, ptr %5, align 8
  %.neg28 = mul i64 %11, -1000000
  %12 = getelementptr inbounds nuw i8, ptr %5, i64 8
  %13 = load i64, ptr %12, align 8
  %.neg = sdiv i64 %13, -1000
  %.neg29 = add i64 %.neg, %.neg28
  br label %Abc_Clock.exit

Abc_Clock.exit:                                   ; preds = %1, %10
  %.0.i.neg = phi i64 [ %.neg29, %10 ], [ 1, %1 ]
  call void @llvm.lifetime.end.p0(i64 16, ptr nonnull %5)
  %14 = call ptr @Ree_ManComputeCuts(ptr noundef %0, ptr noundef null, i32 noundef 1) #13
  %15 = call ptr @Gia_PolynCoreOrder(ptr noundef %0, ptr noundef %14, ptr noundef null, ptr noundef nonnull %6, ptr noundef nonnull %7) #13
  %16 = call i32 @Ree_ManCountFadds(ptr noundef %14) #13
  %17 = getelementptr i8, ptr %14, i64 4
  %.val15 = load i32, ptr %17, align 4
  %18 = sdiv i32 %.val15, 6
  %19 = sub nsw i32 %18, %16
  %20 = getelementptr i8, ptr %15, i64 4
  %.val = load i32, ptr %20, align 4
  %21 = call i32 (ptr, ...) @printf(ptr noundef nonnull dereferenceable(1) @.str.10, i32 noundef %16, i32 noundef %19, i32 noundef %.val)
  call void @llvm.lifetime.start.p0(i64 16, ptr nonnull %4)
  %22 = call i32 @clock_gettime(i32 noundef 1, ptr noundef nonnull %4) #13
  %23 = icmp slt i32 %22, 0
  br i1 %23, label %Abc_Clock.exit17, label %24

24:                                               ; preds = %Abc_Clock.exit
  %25 = load i64, ptr %4, align 8
  %26 = mul nsw i64 %25, 1000000
  %27 = getelementptr inbounds nuw i8, ptr %4, i64 8
  %28 = load i64, ptr %27, align 8
  %29 = sdiv i64 %28, 1000
  %30 = add nsw i64 %29, %26
  br label %Abc_Clock.exit17

Abc_Clock.exit17:                                 ; preds = %Abc_Clock.exit, %24
  %.0.i16 = phi i64 [ %30, %24 ], [ -1, %Abc_Clock.exit ]
  call void @llvm.lifetime.end.p0(i64 16, ptr nonnull %4)
  %31 = add i64 %.0.i16, %.0.i.neg
  call void (i32, ptr, ...) @Abc_Print(i32 poison, ptr noundef nonnull @.str.16, ptr noundef nonnull @.str.11)
  %32 = sitofp i64 %31 to double
  %33 = fdiv double %32, 1.000000e+06
  call void (i32, ptr, ...) @Abc_Print(i32 poison, ptr noundef nonnull @.str.17, double noundef %33)
  call void @llvm.lifetime.start.p0(i64 16, ptr nonnull %3)
  %34 = call i32 @clock_gettime(i32 noundef 1, ptr noundef nonnull %3) #13
  %35 = icmp slt i32 %34, 0
  br i1 %35, label %Abc_Clock.exit19, label %36

36:                                               ; preds = %Abc_Clock.exit17
  %37 = load i64, ptr %3, align 8
  %.neg31 = mul i64 %37, -1000000
  %38 = getelementptr inbounds nuw i8, ptr %3, i64 8
  %39 = load i64, ptr %38, align 8
  %.neg30 = sdiv i64 %39, -1000
  %.neg32 = add i64 %.neg30, %.neg31
  br label %Abc_Clock.exit19

Abc_Clock.exit19:                                 ; preds = %Abc_Clock.exit17, %36
  %.0.i18.neg = phi i64 [ %.neg32, %36 ], [ 1, %Abc_Clock.exit17 ]
  call void @llvm.lifetime.end.p0(i64 16, ptr nonnull %3)
  %40 = load ptr, ptr %6, align 8
  %41 = load ptr, ptr %7, align 8
  %42 = call i32 @Pas_ManComputeCuts(ptr noundef %0, ptr noundef nonnull %14, ptr noundef nonnull %15, ptr noundef %40, ptr noundef %41)
  %43 = getelementptr inbounds nuw i8, ptr %14, i64 8
  %44 = load ptr, ptr %43, align 8
  %.not.i = icmp eq ptr %44, null
  br i1 %.not.i, label %Vec_IntFree.exit, label %45

45:                                               ; preds = %Abc_Clock.exit19
  call void @free(ptr noundef nonnull %44) #13
  br label %Vec_IntFree.exit

Vec_IntFree.exit:                                 ; preds = %Abc_Clock.exit19, %45
  call void @free(ptr noundef nonnull %14) #13
  %46 = getelementptr inbounds nuw i8, ptr %15, i64 8
  %47 = load ptr, ptr %46, align 8
  %.not.i20 = icmp eq ptr %47, null
  br i1 %.not.i20, label %Vec_IntFree.exit21, label %48

48:                                               ; preds = %Vec_IntFree.exit
  call void @free(ptr noundef nonnull %47) #13
  br label %Vec_IntFree.exit21

Vec_IntFree.exit21:                               ; preds = %Vec_IntFree.exit, %48
  call void @free(ptr noundef nonnull %15) #13
  %49 = load ptr, ptr %6, align 8
  %50 = getelementptr inbounds nuw i8, ptr %49, i64 8
  %51 = load ptr, ptr %50, align 8
  %.not.i22 = icmp eq ptr %51, null
  br i1 %.not.i22, label %Vec_IntFree.exit23, label %52

52:                                               ; preds = %Vec_IntFree.exit21
  call void @free(ptr noundef nonnull %51) #13
  br label %Vec_IntFree.exit23

Vec_IntFree.exit23:                               ; preds = %Vec_IntFree.exit21, %52
  call void @free(ptr noundef nonnull %49) #13
  %53 = load ptr, ptr %7, align 8
  %54 = getelementptr inbounds nuw i8, ptr %53, i64 8
  %55 = load ptr, ptr %54, align 8
  %.not.i24 = icmp eq ptr %55, null
  br i1 %.not.i24, label %Vec_IntFree.exit25, label %56

56:                                               ; preds = %Vec_IntFree.exit23
  call void @free(ptr noundef nonnull %55) #13
  br label %Vec_IntFree.exit25

Vec_IntFree.exit25:                               ; preds = %Vec_IntFree.exit23, %56
  call void @free(ptr noundef nonnull %53) #13
  %57 = call i32 (ptr, ...) @printf(ptr noundef nonnull dereferenceable(1) @.str.12, i32 noundef %42)
  call void @llvm.lifetime.start.p0(i64 16, ptr nonnull %2)
  %58 = call i32 @clock_gettime(i32 noundef 1, ptr noundef nonnull %2) #13
  %59 = icmp slt i32 %58, 0
  br i1 %59, label %Abc_Clock.exit27, label %60

60:                                               ; preds = %Vec_IntFree.exit25
  %61 = load i64, ptr %2, align 8
  %62 = mul nsw i64 %61, 1000000
  %63 = getelementptr inbounds nuw i8, ptr %2, i64 8
  %64 = load i64, ptr %63, align 8
  %65 = sdiv i64 %64, 1000
  %66 = add nsw i64 %65, %62
  br label %Abc_Clock.exit27

Abc_Clock.exit27:                                 ; preds = %Vec_IntFree.exit25, %60
  %.0.i26 = phi i64 [ %66, %60 ], [ -1, %Vec_IntFree.exit25 ]
  call void @llvm.lifetime.end.p0(i64 16, ptr nonnull %2)
  %67 = add i64 %.0.i26, %.0.i18.neg
  call void (i32, ptr, ...) @Abc_Print(i32 poison, ptr noundef nonnull @.str.16, ptr noundef nonnull @.str.11)
  %68 = sitofp i64 %67 to double
  %69 = fdiv double %68, 1.000000e+06
  call void (i32, ptr, ...) @Abc_Print(i32 poison, ptr noundef nonnull @.str.17, double noundef %69)
  ret void
}